target datalayout = "e-m:e-p270:32:32-p271:32:32-p272:64:64-i64:64-i128:128-f80:128-n8:16:32:64-S128"
target triple = "x86_64-pc-linux-gnu"

%"struct.LIEF::MachO::details::source_version_command" = type { i32, i32, i64 }
%"class.LIEF::MachO::SourceVersion" = type <{ %"class.LIEF::MachO::LoadCommand", %"struct.std::array", [4 x i8] }>
%"class.LIEF::MachO::LoadCommand" = type { %"class.LIEF::Object", %"class.std::vector", i64, i32, i64 }
%"class.LIEF::Object" = type { ptr }
%"class.std::vector" = type { %"struct.std::_Vector_base" }
%"struct.std::_Vector_base" = type { %"struct.std::_Vector_base<unsigned char, std::allocator<unsigned char>>::_Vector_impl" }
%"struct.std::_Vector_base<unsigned char, std::allocator<unsigned char>>::_Vector_impl" = type { %"struct.std::_Vector_base<unsigned char, std::allocator<unsigned char>>::_Vector_impl_data" }
%"struct.std::_Vector_base<unsigned char, std::allocator<unsigned char>>::_Vector_impl_data" = type { ptr, ptr, ptr }
%"struct.std::array" = type { [5 x i32] }

@_ZTVN4LIEF5MachO11LoadCommandE = external unnamed_addr constant { [9 x ptr] }, align 8

; Function Attrs: mustprogress nounwind uwtable
define linkonce_odr hidden void @_ZNSt15__new_allocatorIhEC2Ev(ptr noundef nonnull align 1 dereferenceable(1) %0) unnamed_addr #0 comdat align 2 {
  %2 = alloca ptr, align 8
  store ptr %0, ptr %2, align 8, !tbaa !70
  ret void
}

; Function Attrs: mustprogress nounwind uwtable
define linkonce_odr hidden void @_ZNSt12_Vector_baseIhSaIhEE17_Vector_impl_dataC2Ev(ptr noundef nonnull align 8 dereferenceable(24) %0) unnamed_addr #0 comdat align 2 {
  %2 = alloca ptr, align 8
  store ptr %0, ptr %2, align 8, !tbaa !65
  %3 = load ptr, ptr %2, align 8
  %4 = getelementptr inbounds nuw %"struct.std::_Vector_base<unsigned char, std::allocator<unsigned char>>::_Vector_impl_data", ptr %3, i32 0, i32 0
  store ptr null, ptr %4, align 8, !tbaa !67
  %5 = getelementptr inbounds nuw %"struct.std::_Vector_base<unsigned char, std::allocator<unsigned char>>::_Vector_impl_data", ptr %3, i32 0, i32 1
  store ptr null, ptr %5, align 8, !tbaa !68
  %6 = getelementptr inbounds nuw %"struct.std::_Vector_base<unsigned char, std::allocator<unsigned char>>::_Vector_impl_data", ptr %3, i32 0, i32 2
  store ptr null, ptr %6, align 8, !tbaa !69
  ret void
}

; Function Attrs: mustprogress nounwind uwtable
define linkonce_odr hidden void @_ZNSaIhEC2Ev(ptr noundef nonnull align 1 dereferenceable(1) %0) unnamed_addr #0 comdat align 2 {
  %2 = alloca ptr, align 8
  store ptr %0, ptr %2, align 8, !tbaa !63
  %3 = load ptr, ptr %2, align 8
  call void @_ZNSt15__new_allocatorIhEC2Ev(ptr noundef nonnull align 1 dereferenceable(1) %3) #19
  ret void
}

; Function Attrs: mustprogress nounwind uwtable
define linkonce_odr hidden void @_ZNSt12_Vector_baseIhSaIhEE12_Vector_implC2Ev(ptr noundef nonnull align 8 dereferenceable(24) %0) unnamed_addr #0 comdat align 2 {
  %2 = alloca ptr, align 8
  store ptr %0, ptr %2, align 8, !tbaa !61
  %3 = load ptr, ptr %2, align 8
  call void @_ZNSaIhEC2Ev(ptr noundef nonnull align 1 dereferenceable(1) %3) #19
  call void @_ZNSt12_Vector_baseIhSaIhEE17_Vector_impl_dataC2Ev(ptr noundef nonnull align 8 dereferenceable(24) %3) #19
  ret void
}

; Function Attrs: mustprogress nounwind uwtable
define linkonce_odr hidden void @_ZNSt12_Vector_baseIhSaIhEEC2Ev(ptr noundef nonnull align 8 dereferenceable(24) %0) unnamed_addr #0 comdat align 2 {
  %2 = alloca ptr, align 8
  store ptr %0, ptr %2, align 8, !tbaa !59
  %3 = load ptr, ptr %2, align 8
  %4 = getelementptr inbounds nuw %"struct.std::_Vector_base", ptr %3, i32 0, i32 0
  call void @_ZNSt12_Vector_baseIhSaIhEE12_Vector_implC2Ev(ptr noundef nonnull align 8 dereferenceable(24) %4) #19
  ret void
}

; Function Attrs: mustprogress nounwind uwtable
define linkonce_odr hidden void @_ZNSt6vectorIhSaIhEEC2Ev(ptr noundef nonnull align 8 dereferenceable(24) %0) unnamed_addr #0 comdat align 2 {
  %2 = alloca ptr, align 8
  store ptr %0, ptr %2, align 8, !tbaa !57
  %3 = load ptr, ptr %2, align 8
  call void @_ZNSt12_Vector_baseIhSaIhEEC2Ev(ptr noundef nonnull align 8 dereferenceable(24) %3) #19
  ret void
}

; Function Attrs: mustprogress nounwind uwtable
define linkonce_odr hidden void @_ZN4LIEF5MachO11LoadCommandC2ENS1_4TYPEEj(ptr noundef nonnull align 8 dereferenceable(56) %0, i64 noundef %1, i32 noundef %2) unnamed_addr #0 comdat align 2 {
  %4 = alloca ptr, align 8
  %5 = alloca i64, align 8
  %6 = alloca i32, align 4
  store ptr %0, ptr %4, align 8, !tbaa !19
  store i64 %1, ptr %5, align 8, !tbaa !21
  store i32 %2, ptr %6, align 4, !tbaa !18
  %7 = load ptr, ptr %4, align 8
  call void @_ZN4LIEF6ObjectC2Ev(ptr noundef nonnull align 8 dereferenceable(8) %7)
  store ptr getelementptr inbounds inrange(-16, 56) ({ [9 x ptr] }, ptr @_ZTVN4LIEF5MachO11LoadCommandE, i32 0, i32 0, i32 2), ptr %7, align 8, !tbaa !15
  %8 = getelementptr inbounds nuw %"class.LIEF::MachO::LoadCommand", ptr %7, i32 0, i32 1
  call void @_ZNSt6vectorIhSaIhEEC2Ev(ptr noundef nonnull align 8 dereferenceable(24) %8) #19
  %9 = getelementptr inbounds nuw %"class.LIEF::MachO::LoadCommand", ptr %7, i32 0, i32 2
  %10 = load i64, ptr %5, align 8, !tbaa !21
  store i64 %10, ptr %9, align 8, !tbaa !23
  %11 = getelementptr inbounds nuw %"class.LIEF::MachO::LoadCommand", ptr %7, i32 0, i32 3
  %12 = load i32, ptr %6, align 4, !tbaa !18
  store i32 %12, ptr %11, align 8, !tbaa !31
  %13 = getelementptr inbounds nuw %"class.LIEF::MachO::LoadCommand", ptr %7, i32 0, i32 4
  store i64 0, ptr %13, align 8, !tbaa !32
  ret void
}

; Function Attrs: mustprogress nounwind uwtable
define void @_ZN4LIEF5MachO13SourceVersionC2ERKNS0_7details22source_version_commandE(ptr noundef nonnull align 8 dereferenceable(76) %0, ptr noundef nonnull align 8 dereferenceable(16) %1) unnamed_addr #0 align 2 {
  %3 = alloca ptr, align 8
  %4 = alloca ptr, align 8
  store ptr %0, ptr %3, align 8, !tbaa !3
  store ptr %1, ptr %4, align 8, !tbaa !8
  %5 = load ptr, ptr %3, align 8
  %6 = load ptr, ptr %4, align 8, !tbaa !8
  %7 = getelementptr inbounds nuw %"struct.LIEF::MachO::details::source_version_command", ptr %6, i32 0, i32 0
  %8 = load i32, ptr %7, align 8, !tbaa !10
  %9 = zext i32 %8 to i64
  %10 = load ptr, ptr %4, align 8, !tbaa !8
  %11 = getelementptr inbounds nuw %"struct.LIEF::MachO::details::source_version_command", ptr %10, i32 0, i32 1
  %12 = load i32, ptr %11, align 4, !tbaa !14
  call void @_ZN4LIEF5MachO11LoadCommandC2ENS1_4TYPEEj(ptr noundef nonnull align 8 dereferenceable(56) %5, i64 noundef %9, i32 noundef %12)
  store ptr getelementptr inbounds inrange(-16, 56) ({ [9 x ptr] }, ptr @_ZTVN4LIEF5MachO13SourceVersionE, i32 0, i32 0, i32 2), ptr %5, align 8, !tbaa !15
  %13 = getelementptr inbounds nuw %"class.LIEF::MachO::SourceVersion", ptr %5, i32 0, i32 1
  %14 = getelementptr inbounds nuw %"struct.std::array", ptr %13, i32 0, i32 0
  %15 = load ptr, ptr %4, align 8, !tbaa !8
  %16 = getelementptr inbounds nuw %"struct.LIEF::MachO::details::source_version_command", ptr %15, i32 0, i32 2
  %17 = load i64, ptr %16, align 8, !tbaa !17
  %18 = lshr i64 %17, 40
  %19 = and i64 %18, 16777215
  %20 = trunc i64 %19 to i32
  store i32 %20, ptr %14, align 4, !tbaa !18
  %21 = getelementptr inbounds i32, ptr %14, i64 1
  %22 = load ptr, ptr %4, align 8, !tbaa !8
  %23 = getelementptr inbounds nuw %"struct.LIEF::MachO::details::source_version_command", ptr %22, i32 0, i32 2
  %24 = load i64, ptr %23, align 8, !tbaa !17
  %25 = lshr i64 %24, 30
  %26 = and i64 %25, 1023
  %27 = trunc i64 %26 to i32
  store i32 %27, ptr %21, align 4, !tbaa !18
  %28 = getelementptr inbounds i32, ptr %14, i64 2
  %29 = load ptr, ptr %4, align 8, !tbaa !8
  %30 = getelementptr inbounds nuw %"struct.LIEF::MachO::details::source_version_command", ptr %29, i32 0, i32 2
  %31 = load i64, ptr %30, align 8, !tbaa !17
  %32 = lshr i64 %31, 20
  %33 = and i64 %32, 1023
  %34 = trunc i64 %33 to i32
  store i32 %34, ptr %28, align 4, !tbaa !18
  %35 = getelementptr inbounds i32, ptr %14, i64 3
  %36 = load ptr, ptr %4, align 8, !tbaa !8
  %37 = getelementptr inbounds nuw %"struct.LIEF::MachO::details::source_version_command", ptr %36, i32 0, i32 2
  %38 = load i64, ptr %37, align 8, !tbaa !17
  %39 = lshr i64 %38, 10
  %40 = and i64 %39, 1023
  %41 = trunc i64 %40 to i32
  store i32 %41, ptr %35, align 4, !tbaa !18
  %42 = getelementptr inbounds i32, ptr %14, i64 4
  %43 = load ptr, ptr %4, align 8, !tbaa !8
  %44 = getelementptr inbounds nuw %"struct.LIEF::MachO::details::source_version_command", ptr %43, i32 0, i32 2
  %45 = load i64, ptr %44, align 8, !tbaa !17
  %46 = lshr i64 %45, 0
  %47 = and i64 %46, 1023
  %48 = trunc i64 %47 to i32
  store i32 %48, ptr %42, align 4, !tbaa !18
  ret void
}