; Function Attrs: mustprogress nounwind uwtable
define void @_ZN4LIEF5MachO13SourceVersionC2ERKNS0_7details22source_version_commandE(ptr noundef nonnull align 8 dereferenceable(76) %0, ptr noundef nonnull readonly align 8 captures(none) dereferenceable(16) %1) unnamed_addr #0 align 2 {
  %3 = load i32, ptr %1, align 8, !tbaa !3
  %4 = zext i32 %3 to i64
  %5 = getelementptr inbounds nuw i8, ptr %1, i64 4
  %6 = load i32, ptr %5, align 4, !tbaa !9
  tail call void @_ZN4LIEF6ObjectC2Ev(ptr noundef nonnull align 8 dereferenceable(56) %0) #21
  %7 = getelementptr inbounds nuw i8, ptr %0, i64 8
  tail call void @llvm.memset.p0.i64(ptr noundef nonnull align 8 dereferenceable(24) %7, i8 0, i64 24, i1 false)
  %8 = getelementptr inbounds nuw i8, ptr %0, i64 32
  store i64 %4, ptr %8, align 8, !tbaa !10
  %9 = getelementptr inbounds nuw i8, ptr %0, i64 40
  store i32 %6, ptr %9, align 8, !tbaa !20
  %10 = getelementptr inbounds nuw i8, ptr %0, i64 48
  store i64 0, ptr %10, align 8, !tbaa !21
  store ptr getelementptr inbounds nuw inrange(-16, 56) (i8, ptr @_ZTVN4LIEF5MachO13SourceVersionE, i64 16), ptr %0, align 8, !tbaa !22
  %11 = getelementptr inbounds nuw i8, ptr %0, i64 56
  %12 = getelementptr inbounds nuw i8, ptr %1, i64 8
  %13 = load i64, ptr %12, align 8, !tbaa !24
  %14 = lshr i64 %13, 40
  %15 = trunc nuw nsw i64 %14 to i32
  store i32 %15, ptr %11, align 8, !tbaa !25
  %16 = getelementptr inbounds nuw i8, ptr %0, i64 60
  %17 = lshr i64 %13, 30
  %18 = trunc i64 %17 to i32
  %19 = and i32 %18, 1023
  store i32 %19, ptr %16, align 4, !tbaa !25
  %20 = getelementptr inbounds nuw i8, ptr %0, i64 64
  %21 = trunc i64 %13 to i32
  %22 = lshr i32 %21, 20
  %23 = and i32 %22, 1023
  store i32 %23, ptr %20, align 8, !tbaa !25
  %24 = getelementptr inbounds nuw i8, ptr %0, i64 68
  %25 = lshr i32 %21, 10
  %26 = and i32 %25, 1023
  store i32 %26, ptr %24, align 4, !tbaa !25
  %27 = getelementptr inbounds nuw i8, ptr %0, i64 72
  %28 = and i32 %21, 1023
  store i32 %28, ptr %27, align 8, !tbaa !25
  ret void
}